; Function Attrs: nounwind uwtable
define hidden ptr @SDL_GetPrimarySelectionText_REAL() local_unnamed_addr #0 {
  %1 = tail call ptr @SDL_GetVideoDevice() #6
  %.not = icmp eq ptr %1, null
  br i1 %.not, label %2, label %5

2:                                                ; preds = %0
  %3 = tail call zeroext i1 @SDL_UninitializedVideo() #6
  %4 = tail call noalias ptr @SDL_strdup_REAL(ptr noundef nonnull @.str.1) #6
  br label %14

5:                                                ; preds = %0
  %6 = getelementptr inbounds nuw i8, ptr %1, i64 728
  %7 = load ptr, ptr %6, align 8
  %.not10 = icmp eq ptr %7, null
  br i1 %.not10, label %10, label %8

8:                                                ; preds = %5
  %9 = tail call ptr %7(ptr noundef nonnull %1) #6
  br label %14

10:                                               ; preds = %5
  %11 = getelementptr inbounds nuw i8, ptr %1, i64 896
  %12 = load ptr, ptr %11, align 8
  %.not11 = icmp eq ptr %12, null
  %spec.store.select = select i1 %.not11, ptr @.str.1, ptr %12
  %13 = tail call noalias ptr @SDL_strdup_REAL(ptr noundef nonnull %spec.store.select) #6
  br label %14

14:                                               ; preds = %10, %8, %2
  %.0 = phi ptr [ %9, %8 ], [ %13, %10 ], [ %4, %2 ]
  ret ptr %.0
}